; Function Attrs: mustprogress noreturn uwtable
define void @_ZN5faiss23AdditiveCoarseQuantizer5resetEv(ptr nocapture nonnull readnone align 8 %0) unnamed_addr #3 align 2 personality ptr @__gxx_personality_v0 {
  %2 = alloca %"class.std::__cxx11::basic_string", align 8
  %3 = alloca %"class.std::allocator.15", align 1
  %4 = tail call ptr @__cxa_allocate_exception(i64 40) #14
  call void @_ZNSaIcEC1Ev(ptr noundef nonnull align 1 dereferenceable(1) %3) #14
  %5 = invoke noundef ptr @_ZNSt7__cxx1112basic_stringIcSt11char_traitsIcESaIcEE13_M_local_dataEv(ptr noundef nonnull align 8 dereferenceable(32) %2)
          to label %.noexc unwind label %9

.noexc:                                           ; preds = %1
  invoke void @_ZNSt7__cxx1112basic_stringIcSt11char_traitsIcESaIcEE12_Alloc_hiderC1EPcRKS3_(ptr noundef nonnull align 8 dereferenceable(8) %2, ptr noundef %5, ptr noundef nonnull align 1 dereferenceable(1) %3)
          to label %.noexc5 unwind label %9

.noexc5:                                          ; preds = %.noexc
  invoke void @_ZNSt7__cxx1112basic_stringIcSt11char_traitsIcESaIcEE12_M_constructIPKcEEvT_S8_St20forward_iterator_tag(ptr noundef nonnull align 8 dereferenceable(32) %2, ptr noundef nonnull @.str.9, ptr noundef nonnull getelementptr inbounds ([15 x i8], ptr @.str.9, i64 0, i64 14))
          to label %_ZNSt7__cxx1112basic_stringIcSt11char_traitsIcESaIcEEC2IS3_EEPKcRKS3_.exit unwind label %6

6:                                                ; preds = %.noexc5
  %7 = landingpad { ptr, i32 }
          cleanup
  call void @_ZNSaIcED2Ev(ptr noundef nonnull align 1 dereferenceable(1) %2) #14
  br label %.body.thread

_ZNSt7__cxx1112basic_stringIcSt11char_traitsIcESaIcEEC2IS3_EEPKcRKS3_.exit: ; preds = %.noexc5
  invoke void @_ZN5faiss14FaissExceptionC1ERKNSt7__cxx1112basic_stringIcSt11char_traitsIcESaIcEEEPKcSA_i(ptr noundef nonnull align 8 dereferenceable(40) %4, ptr noundef nonnull align 8 dereferenceable(32) %2, ptr noundef nonnull @__PRETTY_FUNCTION__._ZN5faiss23AdditiveCoarseQuantizer5resetEv, ptr noundef nonnull @.str.2, i32 noundef 428)
          to label %8 unwind label %.body

8:                                                ; preds = %_ZNSt7__cxx1112basic_stringIcSt11char_traitsIcESaIcEEC2IS3_EEPKcRKS3_.exit
  invoke void @__cxa_throw(ptr nonnull %4, ptr nonnull @_ZTIN5faiss14FaissExceptionE, ptr nonnull @_ZN5faiss14FaissExceptionD2Ev) #21
          to label %14 unwind label %.body

9:                                                ; preds = %.noexc, %1
  %10 = landingpad { ptr, i32 }
          cleanup
  br label %.body.thread

.body.thread:                                     ; preds = %6, %9
  %.pn.ph = phi { ptr, i32 } [ %7, %6 ], [ %10, %9 ]
  call void @_ZNSaIcED1Ev(ptr noundef nonnull align 1 dereferenceable(1) %3) #14
  br label %12

.body:                                            ; preds = %_ZNSt7__cxx1112basic_stringIcSt11char_traitsIcESaIcEEC2IS3_EEPKcRKS3_.exit, %8
  %.0 = phi i1 [ false, %8 ], [ true, %_ZNSt7__cxx1112basic_stringIcSt11char_traitsIcESaIcEEC2IS3_EEPKcRKS3_.exit ]
  %11 = landingpad { ptr, i32 }
          cleanup
  call void @_ZNSt7__cxx1112basic_stringIcSt11char_traitsIcESaIcEED1Ev(ptr noundef nonnull align 8 dereferenceable(32) %2) #14
  call void @_ZNSaIcED1Ev(ptr noundef nonnull align 1 dereferenceable(1) %3) #14
  br i1 %.0, label %12, label %13

12:                                               ; preds = %.body.thread, %.body
  %.pn9 = phi { ptr, i32 } [ %.pn.ph, %.body.thread ], [ %11, %.body ]
  call void @__cxa_free_exception(ptr %4) #14
  br label %13

13:                                               ; preds = %.body, %12
  %.pn8 = phi { ptr, i32 } [ %11, %.body ], [ %.pn9, %12 ]
  resume { ptr, i32 } %.pn8

14:                                               ; preds = %8
  unreachable
}